
fs/proc/stack_exploit.o:     file format elf64-littleaarch64


Disassembly of section .text:

0000000000000000 <func1>:
   0:	a9bf7bfd 	stp	x29, x30, [sp,#-16]!
   4:	90000000 	adrp	x0, 0 <func1>
   8:	910003fd 	mov	x29, sp
   c:	91000000 	add	x0, x0, #0x0
  10:	94000000 	bl	0 <printk>
  14:	a8c17bfd 	ldp	x29, x30, [sp],#16
  18:	d65f03c0 	ret

000000000000001c <exploit_write>:
  1c:	a9bd7bfd 	stp	x29, x30, [sp,#-48]!
  20:	90000000 	adrp	x0, 0 <func1>
  24:	910003fd 	mov	x29, sp
  28:	a90153f3 	stp	x19, x20, [sp,#16]
  2c:	aa0103f4 	mov	x20, x1
  30:	aa0203f3 	mov	x19, x2
  34:	f94023a1 	ldr	x1, [x29,#64]
  38:	90000002 	adrp	x2, 0 <func1>
  3c:	91000042 	add	x2, x2, #0x0
  40:	91000000 	add	x0, x0, #0x0
  44:	94000000 	bl	0 <printk>
  48:	aa1303e2 	mov	x2, x19
  4c:	aa1403e1 	mov	x1, x20
  50:	910083a0 	add	x0, x29, #0x20
  54:	94000000 	bl	0 <memcpy>
  58:	f94023a1 	ldr	x1, [x29,#64]
  5c:	90000000 	adrp	x0, 0 <func1>
  60:	91000000 	add	x0, x0, #0x0
  64:	94000000 	bl	0 <printk>
  68:	a94153f3 	ldp	x19, x20, [sp,#16]
  6c:	a8c37bfd 	ldp	x29, x30, [sp],#48
  70:	d65f03c0 	ret

0000000000000074 <exploit_proc_show>:
  74:	a9bc7bfd 	stp	x29, x30, [sp,#-64]!
  78:	12800002 	mov	w2, #0xffffffff            	// #-1
  7c:	910003fd 	mov	x29, sp
  80:	a90153f3 	stp	x19, x20, [sp,#16]
  84:	f9001bf7 	str	x23, [sp,#48]
  88:	90000013 	adrp	x19, 0 <kernel_cpustat>
  8c:	90000014 	adrp	x20, 0 <__cpu_possible_mask>
  90:	90000017 	adrp	x23, 0 <nr_cpu_ids>
  94:	a9025bf5 	stp	x21, x22, [sp,#32]
  98:	91000273 	add	x19, x19, #0x0
  9c:	aa0003f5 	mov	x21, x0
  a0:	d2800016 	mov	x22, #0x0                   	// #0
  a4:	91000294 	add	x20, x20, #0x0
  a8:	910002f7 	add	x23, x23, #0x0
  ac:	14000007 	b	c8 <exploit_proc_show+0x54>
  b0:	90000001 	adrp	x1, 0 <__per_cpu_offset>
  b4:	91000021 	add	x1, x1, #0x0
  b8:	f860d820 	ldr	x0, [x1,w0,sxtw #3]
  bc:	8b000260 	add	x0, x19, x0
  c0:	f9401400 	ldr	x0, [x0,#40]
  c4:	8b0002d6 	add	x22, x22, x0
  c8:	11000442 	add	w2, w2, #0x1
  cc:	d2800801 	mov	x1, #0x40                  	// #64
  d0:	aa1403e0 	mov	x0, x20
  d4:	93407c42 	sxtw	x2, w2
  d8:	94000000 	bl	0 <find_next_bit>
  dc:	2a0003e2 	mov	w2, w0
  e0:	b94002e1 	ldr	w1, [x23]
  e4:	6b01001f 	cmp	w0, w1
  e8:	54fffe4b 	b.lt	b0 <exploit_proc_show+0x3c>
  ec:	52800020 	mov	w0, #0x1                   	// #1
  f0:	94000000 	bl	0 <ktime_get_with_offset>
  f4:	94000000 	bl	0 <ns_to_timespec>
  f8:	aa0003e2 	mov	x2, x0
  fc:	d378dec0 	lsl	x0, x22, #8
 100:	d28b4a64 	mov	x4, #0x5a53                	// #23123
 104:	cb160c00 	sub	x0, x0, x22, lsl #3
 108:	f2b41364 	movk	x4, #0xa09b, lsl #16
 10c:	f2d705e4 	movk	x4, #0xb82f, lsl #32
 110:	aa0103e5 	mov	x5, x1
 114:	8b001ad6 	add	x22, x22, x0, lsl #6
 118:	f2e00884 	movk	x4, #0x44, lsl #48
 11c:	cb0002d6 	sub	x22, x22, x0
 120:	d2994003 	mov	x3, #0xca00                	// #51712
 124:	d378ded6 	lsl	x22, x22, #8
 128:	d28857a0 	mov	x0, #0x42bd                	// #17085
 12c:	d349fec1 	lsr	x1, x22, #9
 130:	f2a77343 	movk	x3, #0x3b9a, lsl #16
 134:	aa0003e6 	mov	x6, x0
 138:	f2bcaf40 	movk	x0, #0xe57a, lsl #16
 13c:	9bc47c24 	umulh	x4, x1, x4
 140:	f2bcaf46 	movk	x6, #0xe57a, lsl #16
 144:	f2d29aa0 	movk	x0, #0x94d5, lsl #32
 148:	d34bfc84 	lsr	x4, x4, #11
 14c:	f2d29aa6 	movk	x6, #0x94d5, lsl #32
 150:	f2fad7e0 	movk	x0, #0xd6bf, lsl #48
 154:	f2fad7e6 	movk	x6, #0xd6bf, lsl #48
 158:	9b03d896 	msub	x22, x4, x3, x22
 15c:	9b407ca3 	smulh	x3, x5, x0
 160:	90000001 	adrp	x1, 0 <func1>
 164:	aa1503e0 	mov	x0, x21
 168:	9b467ec6 	smulh	x6, x22, x6
 16c:	8b050063 	add	x3, x3, x5
 170:	91000021 	add	x1, x1, #0x0
 174:	8b1600c6 	add	x6, x6, x22
 178:	9357fc63 	asr	x3, x3, #23
 17c:	9357fcc6 	asr	x6, x6, #23
 180:	cb85fc63 	sub	x3, x3, x5, asr #63
 184:	cb96fcc5 	sub	x5, x6, x22, asr #63
 188:	94000000 	bl	0 <seq_printf>
 18c:	f9401bf7 	ldr	x23, [sp,#48]
 190:	52800000 	mov	w0, #0x0                   	// #0
 194:	a94153f3 	ldp	x19, x20, [sp,#16]
 198:	a9425bf5 	ldp	x21, x22, [sp,#32]
 19c:	a8c47bfd 	ldp	x29, x30, [sp],#64
 1a0:	d65f03c0 	ret

00000000000001a4 <exploit_proc_open>:
 1a4:	a9bd7bfd 	stp	x29, x30, [sp,#-48]!
 1a8:	910003fd 	mov	x29, sp
 1ac:	a90153f3 	stp	x19, x20, [sp,#16]
 1b0:	90000013 	adrp	x19, 0 <func1>
 1b4:	aa0103f4 	mov	x20, x1
 1b8:	91000273 	add	x19, x19, #0x0
 1bc:	394153a1 	ldrb	w1, [x29,#84]
 1c0:	aa1303e0 	mov	x0, x19
 1c4:	94000000 	bl	0 <printk>
 1c8:	90000001 	adrp	x1, 0 <func1>
 1cc:	9100e3a2 	add	x2, x29, #0x38
 1d0:	91000021 	add	x1, x1, #0x0
 1d4:	aa1303e0 	mov	x0, x19
 1d8:	a9411424 	ldp	x4, x5, [x1,#16]
 1dc:	a9011444 	stp	x4, x5, [x2,#16]
 1e0:	a9401c26 	ldp	x6, x7, [x1]
 1e4:	a9421424 	ldp	x4, x5, [x1,#32]
 1e8:	b9403023 	ldr	w3, [x1,#48]
 1ec:	a9001c46 	stp	x6, x7, [x2]
 1f0:	a9021444 	stp	x4, x5, [x2,#32]
 1f4:	b9006ba3 	str	w3, [x29,#104]
 1f8:	394153a1 	ldrb	w1, [x29,#84]
 1fc:	94000000 	bl	0 <printk>
 200:	90000001 	adrp	x1, 0 <func1>
 204:	aa1403e0 	mov	x0, x20
 208:	91000021 	add	x1, x1, #0x0
 20c:	d2800002 	mov	x2, #0x0                   	// #0
 210:	94000000 	bl	0 <single_open>
 214:	a94153f3 	ldp	x19, x20, [sp,#16]
 218:	a8c37bfd 	ldp	x29, x30, [sp],#48
 21c:	d65f03c0 	ret

0000000000000220 <test>:
 220:	a9bc7bfd 	stp	x29, x30, [sp,#-64]!
 224:	910003fd 	mov	x29, sp
 228:	a90153f3 	stp	x19, x20, [sp,#16]
 22c:	a9025bf5 	stp	x21, x22, [sp,#32]
 230:	93407c34 	sxtw	x20, w1
 234:	9100c3b5 	add	x21, x29, #0x30
 238:	90000013 	adrp	x19, 0 <func1>
 23c:	aa0003f6 	mov	x22, x0
 240:	91000273 	add	x19, x19, #0x0
 244:	38746aa1 	ldrb	w1, [x21,x20]
 248:	aa1303e0 	mov	x0, x19
 24c:	94000000 	bl	0 <printk>
 250:	aa1403e2 	mov	x2, x20
 254:	aa1603e1 	mov	x1, x22
 258:	910123a0 	add	x0, x29, #0x48
 25c:	94000000 	bl	0 <memcpy>
 260:	38746aa1 	ldrb	w1, [x21,x20]
 264:	aa1303e0 	mov	x0, x19
 268:	94000000 	bl	0 <printk>
 26c:	a94153f3 	ldp	x19, x20, [sp,#16]
 270:	a9425bf5 	ldp	x21, x22, [sp,#32]
 274:	a8c47bfd 	ldp	x29, x30, [sp],#64
 278:	d65f03c0 	ret

Disassembly of section .init.text:

0000000000000000 <proc_exploit_init>:
   0:	a9bf7bfd 	stp	x29, x30, [sp,#-16]!
   4:	90000000 	adrp	x0, 0 <proc_exploit_init>
   8:	90000003 	adrp	x3, 0 <proc_exploit_init>
   c:	910003fd 	mov	x29, sp
  10:	52800001 	mov	w1, #0x0                   	// #0
  14:	d2800002 	mov	x2, #0x0                   	// #0
  18:	91000063 	add	x3, x3, #0x0
  1c:	d2800004 	mov	x4, #0x0                   	// #0
  20:	91000000 	add	x0, x0, #0x0
  24:	94000000 	bl	0 <proc_create_data>
  28:	52800000 	mov	w0, #0x0                   	// #0
  2c:	a8c17bfd 	ldp	x29, x30, [sp],#16
  30:	d65f03c0 	ret

Disassembly of section .initcall5.init:

0000000000000000 <__initcall_proc_exploit_init5>:
	...
